target datalayout = "e-m:e-p270:32:32-p271:32:32-p272:64:64-i64:64-i128:128-f80:128-n8:16:32:64-S128"
target triple = "x86_64-unknown-linux-gnu"

%"class.v8::IndirectHandleBase" = type { ptr }
%"class.node::HandleWrap" = type { %"class.node::AsyncWrap", i32, %"class.node::ListNode", ptr }
%"class.node::AsyncWrap" = type { %"class.node::BaseObject", i32, i8, double, double }
%"class.node::BaseObject" = type { %"class.node::MemoryRetainer", %"class.v8::Global", ptr, ptr }
%"class.node::MemoryRetainer" = type { ptr }
%"class.v8::Global" = type { %"class.v8::PersistentBase" }
%"class.v8::PersistentBase" = type { %"class.v8::IndirectHandleBase" }
%"class.node::ListNode" = type { ptr, ptr }
%struct.uv__queue = type { ptr, ptr }
%"class.node::Environment" = type { %"class.node::MemoryRetainer", %"class.std::unordered_multimap", %"class.std::__cxx11::list", ptr, ptr, %struct.uv_timer_s, %struct.uv_check_s, %struct.uv_idle_s, %struct.uv_prepare_s, %struct.uv_check_s, %struct.uv_async_s, i64, %"struct.std::atomic", %"struct.std::atomic", %"class.node::AsyncHooks", %"class.node::ImmediateInfo", %"class.node::AliasedBufferBase.25", %"class.node::TickInfo", %"class.node::permission::Permission", i64, %"class.std::shared_ptr", i8, i8, i8, i8, i8, i8, i64, %"class.std::vector.50", %"class.std::unordered_set", %"class.std::unique_ptr", %"class.std::unique_ptr.76", %"class.std::__cxx11::basic_string", %"class.std::__cxx11::basic_string", %"class.std::__cxx11::basic_string", i64, %"class.std::unique_ptr.88", %"class.std::__cxx11::basic_string", %"class.std::__cxx11::basic_string", i64, %"class.std::shared_ptr.96", %"class.std::shared_ptr.99", %"class.std::vector.102", %"class.std::vector.102", %"class.std::__cxx11::basic_string", i8, i32, i32, i8, i32, i32, i32, i32, %"class.node::AliasedBufferBase.25", %"class.node::AliasedBufferBase.15", i32, %"class.std::unique_ptr.107", %"class.node::AliasedBufferBase.25", i64, double, i64, %"class.std::unique_ptr.115", i8, i64, i64, %"class.std::unordered_set.123", %"class.std::unique_ptr.143", i8, %"class.std::__cxx11::list.151", %"class.node::ListHead", %"class.node::ListHead.156", %"class.std::__cxx11::list.158", i32, i32, %"class.node::EnabledDebugList", %"class.std::vector.163", %"class.std::__cxx11::list.168", %"class.node::MutexBase", %"class.std::__cxx11::list.173", %"class.node::CallbackQueue", %"class.node::MutexBase", %"class.node::CallbackQueue", %"class.node::CallbackQueue", i8, %"struct.std::atomic.188", %"class.node::CleanupQueue", i8, %"class.std::unordered_set.206", %"class.std::function", %"class.std::unique_ptr.221", %"class.node::builtins::BuiltinLoader", %"class.std::function.235", %"class.std::unordered_map.237" }
%"class.std::unordered_multimap" = type { %"class.std::_Hashtable" }
%"class.std::_Hashtable" = type { ptr, i64, %"struct.std::__detail::_Hash_node_base", i64, %"struct.std::__detail::_Prime_rehash_policy", ptr }
%"struct.std::__detail::_Hash_node_base" = type { ptr }
%"struct.std::__detail::_Prime_rehash_policy" = type { float, i64 }
%"class.std::__cxx11::list" = type { %"class.std::__cxx11::_List_base" }
%"class.std::__cxx11::_List_base" = type { %"struct.std::__cxx11::_List_base<node::binding::DLib, std::allocator<node::binding::DLib>>::_List_impl" }
%"struct.std::__cxx11::_List_base<node::binding::DLib, std::allocator<node::binding::DLib>>::_List_impl" = type { %"struct.std::__detail::_List_node_header" }
%"struct.std::__detail::_List_node_header" = type { %"struct.std::__detail::_List_node_base", i64 }
%"struct.std::__detail::_List_node_base" = type { ptr, ptr }
%struct.uv_timer_s = type { ptr, ptr, i32, ptr, %struct.uv__queue, %union.anon, ptr, i32, ptr, [3 x ptr], i64, i64, i64 }
%union.anon = type { [4 x ptr] }
%struct.uv_idle_s = type { ptr, ptr, i32, ptr, %struct.uv__queue, %union.anon.10, ptr, i32, ptr, %struct.uv__queue }
%union.anon.10 = type { [4 x ptr] }
%struct.uv_prepare_s = type { ptr, ptr, i32, ptr, %struct.uv__queue, %union.anon.11, ptr, i32, ptr, %struct.uv__queue }
%union.anon.11 = type { [4 x ptr] }
%struct.uv_check_s = type { ptr, ptr, i32, ptr, %struct.uv__queue, %union.anon.9, ptr, i32, ptr, %struct.uv__queue }
%union.anon.9 = type { [4 x ptr] }
%struct.uv_async_s = type { ptr, ptr, i32, ptr, %struct.uv__queue, %union.anon.12, ptr, i32, ptr, %struct.uv__queue, i32 }
%union.anon.12 = type { [4 x ptr] }
%"struct.std::atomic" = type { %"struct.std::__atomic_base" }
%"struct.std::__atomic_base" = type { i8 }
%"class.node::AsyncHooks" = type { %"class.node::MemoryRetainer", %"class.node::AliasedBufferBase", %"class.node::AliasedBufferBase.15", %"class.node::AliasedBufferBase", %"class.v8::Global.18", %"class.std::vector", ptr, %"struct.std::array" }
%"class.node::AliasedBufferBase" = type { %"class.node::MemoryRetainer", ptr, i64, i64, ptr, %"class.v8::Global.13", ptr }
%"class.v8::Global.13" = type { %"class.v8::PersistentBase.14" }
%"class.v8::PersistentBase.14" = type { %"class.v8::IndirectHandleBase" }
%"class.v8::Global.18" = type { %"class.v8::PersistentBase.19" }
%"class.v8::PersistentBase.19" = type { %"class.v8::IndirectHandleBase" }
%"class.std::vector" = type { %"struct.std::_Vector_base" }
%"struct.std::_Vector_base" = type { %"struct.std::_Vector_base<v8::Local<v8::Object>, std::allocator<v8::Local<v8::Object>>>::_Vector_impl" }
%"struct.std::_Vector_base<v8::Local<v8::Object>, std::allocator<v8::Local<v8::Object>>>::_Vector_impl" = type { %"struct.std::_Vector_base<v8::Local<v8::Object>, std::allocator<v8::Local<v8::Object>>>::_Vector_impl_data" }
%"struct.std::_Vector_base<v8::Local<v8::Object>, std::allocator<v8::Local<v8::Object>>>::_Vector_impl_data" = type { ptr, ptr, ptr }
%"struct.std::array" = type { [4 x %"class.v8::Global.23"] }
%"class.v8::Global.23" = type { %"class.v8::PersistentBase.24" }
%"class.v8::PersistentBase.24" = type { %"class.v8::IndirectHandleBase" }
%"class.node::ImmediateInfo" = type { %"class.node::MemoryRetainer", %"class.node::AliasedBufferBase.15" }
%"class.node::TickInfo" = type { %"class.node::MemoryRetainer", %"class.node::AliasedBufferBase.28" }
%"class.node::AliasedBufferBase.28" = type { %"class.node::MemoryRetainer", ptr, i64, i64, ptr, %"class.v8::Global.29", ptr }
%"class.v8::Global.29" = type { %"class.v8::PersistentBase.30" }
%"class.v8::PersistentBase.30" = type { %"class.v8::IndirectHandleBase" }
%"class.node::permission::Permission" = type <{ %"class.std::unordered_map", i8, [7 x i8] }>
%"class.std::unordered_map" = type { %"class.std::_Hashtable.31" }
%"class.std::_Hashtable.31" = type { ptr, i64, %"struct.std::__detail::_Hash_node_base", i64, %"struct.std::__detail::_Prime_rehash_policy", ptr }
%"class.std::shared_ptr" = type { %"class.std::__shared_ptr" }
%"class.std::__shared_ptr" = type { ptr, %"class.std::__shared_count" }
%"class.std::__shared_count" = type { ptr }
%"class.std::vector.50" = type { %"struct.std::_Vector_base.51" }
%"struct.std::_Vector_base.51" = type { %"struct.std::_Vector_base<double, std::allocator<double>>::_Vector_impl" }
%"struct.std::_Vector_base<double, std::allocator<double>>::_Vector_impl" = type { %"struct.std::_Vector_base<double, std::allocator<double>>::_Vector_impl_data" }
%"struct.std::_Vector_base<double, std::allocator<double>>::_Vector_impl_data" = type { ptr, ptr, ptr }
%"class.std::unordered_set" = type { %"class.std::_Hashtable.55" }
%"class.std::_Hashtable.55" = type { ptr, i64, %"struct.std::__detail::_Hash_node_base", i64, %"struct.std::__detail::_Prime_rehash_policy", ptr }
%"class.std::unique_ptr" = type { %"struct.std::__uniq_ptr_data" }
%"struct.std::__uniq_ptr_data" = type { %"class.std::__uniq_ptr_impl" }
%"class.std::__uniq_ptr_impl" = type { %"class.std::tuple" }
%"class.std::tuple" = type { %"struct.std::_Tuple_impl" }
%"struct.std::_Tuple_impl" = type { %"struct.std::_Head_base.75" }
%"struct.std::_Head_base.75" = type { ptr }
%"class.std::unique_ptr.76" = type { %"struct.std::__uniq_ptr_data.77" }
%"struct.std::__uniq_ptr_data.77" = type { %"class.std::__uniq_ptr_impl.78" }
%"class.std::__uniq_ptr_impl.78" = type { %"class.std::tuple.79" }
%"class.std::tuple.79" = type { %"struct.std::_Tuple_impl.80" }
%"struct.std::_Tuple_impl.80" = type { %"struct.std::_Head_base.83" }
%"struct.std::_Head_base.83" = type { ptr }
%"class.std::unique_ptr.88" = type { %"struct.std::__uniq_ptr_data.89" }
%"struct.std::__uniq_ptr_data.89" = type { %"class.std::__uniq_ptr_impl.90" }
%"class.std::__uniq_ptr_impl.90" = type { %"class.std::tuple.91" }
%"class.std::tuple.91" = type { %"struct.std::_Tuple_impl.92" }
%"struct.std::_Tuple_impl.92" = type { %"struct.std::_Head_base.95" }
%"struct.std::_Head_base.95" = type { ptr }
%"class.std::shared_ptr.96" = type { %"class.std::__shared_ptr.97" }
%"class.std::__shared_ptr.97" = type { ptr, %"class.std::__shared_count" }
%"class.std::shared_ptr.99" = type { %"class.std::__shared_ptr.100" }
%"class.std::__shared_ptr.100" = type { ptr, %"class.std::__shared_count" }
%"class.std::vector.102" = type { %"struct.std::_Vector_base.103" }
%"struct.std::_Vector_base.103" = type { %"struct.std::_Vector_base<std::__cxx11::basic_string<char>, std::allocator<std::__cxx11::basic_string<char>>>::_Vector_impl" }
%"struct.std::_Vector_base<std::__cxx11::basic_string<char>, std::allocator<std::__cxx11::basic_string<char>>>::_Vector_impl" = type { %"struct.std::_Vector_base<std::__cxx11::basic_string<char>, std::allocator<std::__cxx11::basic_string<char>>>::_Vector_impl_data" }
%"struct.std::_Vector_base<std::__cxx11::basic_string<char>, std::allocator<std::__cxx11::basic_string<char>>>::_Vector_impl_data" = type { ptr, ptr, ptr }
%"class.std::__cxx11::basic_string" = type { %"struct.std::__cxx11::basic_string<char>::_Alloc_hider", i64, %union.anon.87 }
%"struct.std::__cxx11::basic_string<char>::_Alloc_hider" = type { ptr }
%union.anon.87 = type { i64, [8 x i8] }
%"class.node::AliasedBufferBase.15" = type { %"class.node::MemoryRetainer", ptr, i64, i64, ptr, %"class.v8::Global.16", ptr }
%"class.v8::Global.16" = type { %"class.v8::PersistentBase.17" }
%"class.v8::PersistentBase.17" = type { %"class.v8::IndirectHandleBase" }
%"class.std::unique_ptr.107" = type { %"struct.std::__uniq_ptr_data.108" }
%"struct.std::__uniq_ptr_data.108" = type { %"class.std::__uniq_ptr_impl.109" }
%"class.std::__uniq_ptr_impl.109" = type { %"class.std::tuple.110" }
%"class.std::tuple.110" = type { %"struct.std::_Tuple_impl.111" }
%"struct.std::_Tuple_impl.111" = type { %"struct.std::_Head_base.114" }
%"struct.std::_Head_base.114" = type { ptr }
%"class.node::AliasedBufferBase.25" = type { %"class.node::MemoryRetainer", ptr, i64, i64, ptr, %"class.v8::Global.26", ptr }
%"class.v8::Global.26" = type { %"class.v8::PersistentBase.27" }
%"class.v8::PersistentBase.27" = type { %"class.v8::IndirectHandleBase" }
%"class.std::unique_ptr.115" = type { %"struct.std::__uniq_ptr_data.116" }
%"struct.std::__uniq_ptr_data.116" = type { %"class.std::__uniq_ptr_impl.117" }
%"class.std::__uniq_ptr_impl.117" = type { %"class.std::tuple.118" }
%"class.std::tuple.118" = type { %"struct.std::_Tuple_impl.119" }
%"struct.std::_Tuple_impl.119" = type { %"struct.std::_Head_base.122" }
%"struct.std::_Head_base.122" = type { ptr }
%"class.std::unordered_set.123" = type { %"class.std::_Hashtable.124" }
%"class.std::_Hashtable.124" = type { ptr, i64, %"struct.std::__detail::_Hash_node_base", i64, %"struct.std::__detail::_Prime_rehash_policy", ptr }
%"class.std::unique_ptr.143" = type { %"struct.std::__uniq_ptr_data.144" }
%"struct.std::__uniq_ptr_data.144" = type { %"class.std::__uniq_ptr_impl.145" }
%"class.std::__uniq_ptr_impl.145" = type { %"class.std::tuple.146" }
%"class.std::tuple.146" = type { %"struct.std::_Tuple_impl.147" }
%"struct.std::_Tuple_impl.147" = type { %"struct.std::_Head_base.150" }
%"struct.std::_Head_base.150" = type { ptr }
%"class.std::__cxx11::list.151" = type { %"class.std::__cxx11::_List_base.152" }
%"class.std::__cxx11::_List_base.152" = type { %"struct.std::__cxx11::_List_base<node::DeserializeRequest, std::allocator<node::DeserializeRequest>>::_List_impl" }
%"struct.std::__cxx11::_List_base<node::DeserializeRequest, std::allocator<node::DeserializeRequest>>::_List_impl" = type { %"struct.std::__detail::_List_node_header" }
%"class.node::ListHead" = type { %"class.node::ListNode" }
%"class.node::ListHead.156" = type { %"class.node::ListNode.157" }
%"class.node::ListNode.157" = type { ptr, ptr }
%"class.std::__cxx11::list.158" = type { %"class.std::__cxx11::_List_base.159" }
%"class.std::__cxx11::_List_base.159" = type { %"struct.std::__cxx11::_List_base<node::Environment::HandleCleanup, std::allocator<node::Environment::HandleCleanup>>::_List_impl" }
%"struct.std::__cxx11::_List_base<node::Environment::HandleCleanup, std::allocator<node::Environment::HandleCleanup>>::_List_impl" = type { %"struct.std::__detail::_List_node_header" }
%"class.node::EnabledDebugList" = type { [75 x i8] }
%"class.std::vector.163" = type { %"struct.std::_Vector_base.164" }
%"struct.std::_Vector_base.164" = type { %"struct.std::_Vector_base<v8::Global<v8::Context>, std::allocator<v8::Global<v8::Context>>>::_Vector_impl" }
%"struct.std::_Vector_base<v8::Global<v8::Context>, std::allocator<v8::Global<v8::Context>>>::_Vector_impl" = type { %"struct.std::_Vector_base<v8::Global<v8::Context>, std::allocator<v8::Global<v8::Context>>>::_Vector_impl_data" }
%"struct.std::_Vector_base<v8::Global<v8::Context>, std::allocator<v8::Global<v8::Context>>>::_Vector_impl_data" = type { ptr, ptr, ptr }
%"class.std::__cxx11::list.168" = type { %"class.std::__cxx11::_List_base.169" }
%"class.std::__cxx11::_List_base.169" = type { %"struct.std::__cxx11::_List_base<node::node_module, std::allocator<node::node_module>>::_List_impl" }
%"struct.std::__cxx11::_List_base<node::node_module, std::allocator<node::node_module>>::_List_impl" = type { %"struct.std::__detail::_List_node_header" }
%"class.std::__cxx11::list.173" = type { %"class.std::__cxx11::_List_base.174" }
%"class.std::__cxx11::_List_base.174" = type { %"struct.std::__cxx11::_List_base<node::Environment::ExitCallback, std::allocator<node::Environment::ExitCallback>>::_List_impl" }
%"struct.std::__cxx11::_List_base<node::Environment::ExitCallback, std::allocator<node::Environment::ExitCallback>>::_List_impl" = type { %"struct.std::__detail::_List_node_header" }
%"class.node::MutexBase" = type { %union.pthread_mutex_t }
%union.pthread_mutex_t = type { %struct.__pthread_mutex_s }
%struct.__pthread_mutex_s = type { i32, i32, i32, i32, i32, i16, i16, %struct.__pthread_internal_list }
%struct.__pthread_internal_list = type { ptr, ptr }
%"class.node::CallbackQueue" = type { %"struct.std::atomic.178", %"class.std::unique_ptr.180", ptr }
%"struct.std::atomic.178" = type { %"struct.std::__atomic_base.179" }
%"struct.std::__atomic_base.179" = type { i64 }
%"class.std::unique_ptr.180" = type { %"struct.std::__uniq_ptr_data.181" }
%"struct.std::__uniq_ptr_data.181" = type { %"class.std::__uniq_ptr_impl.182" }
%"class.std::__uniq_ptr_impl.182" = type { %"class.std::tuple.183" }
%"class.std::tuple.183" = type { %"struct.std::_Tuple_impl.184" }
%"struct.std::_Tuple_impl.184" = type { %"struct.std::_Head_base.187" }
%"struct.std::_Head_base.187" = type { ptr }
%"struct.std::atomic.188" = type { %"struct.std::__atomic_base.189" }
%"struct.std::__atomic_base.189" = type { ptr }
%"class.node::CleanupQueue" = type { %"class.node::MemoryRetainer", %"class.std::unordered_set.190", i64 }
%"class.std::unordered_set.190" = type { %"class.std::_Hashtable.191" }
%"class.std::_Hashtable.191" = type { ptr, i64, %"struct.std::__detail::_Hash_node_base", i64, %"struct.std::__detail::_Prime_rehash_policy", ptr }
%"class.std::unordered_set.206" = type { %"class.std::_Hashtable.207" }
%"class.std::_Hashtable.207" = type { ptr, i64, %"struct.std::__detail::_Hash_node_base", i64, %"struct.std::__detail::_Prime_rehash_policy", ptr }
%"class.std::function" = type { %"class.std::_Function_base", ptr }
%"class.std::_Function_base" = type { %"union.std::_Any_data", ptr }
%"union.std::_Any_data" = type { %"union.std::_Nocopy_types" }
%"union.std::_Nocopy_types" = type { { i64, i64 } }
%"class.std::unique_ptr.221" = type { %"struct.std::__uniq_ptr_data.222" }
%"struct.std::__uniq_ptr_data.222" = type { %"class.std::__uniq_ptr_impl.223" }
%"class.std::__uniq_ptr_impl.223" = type { %"class.std::tuple.224" }
%"class.std::tuple.224" = type { %"struct.std::_Tuple_impl.225" }
%"struct.std::_Tuple_impl.225" = type { %"struct.std::_Head_base.228" }
%"struct.std::_Head_base.228" = type { ptr }
%"class.node::builtins::BuiltinLoader" = type { %"class.node::ThreadsafeCopyOnWrite", %"class.node::UnionBytes", %"class.std::shared_ptr.232" }
%"class.node::ThreadsafeCopyOnWrite" = type { %"class.node::CopyOnWrite" }
%"class.node::CopyOnWrite" = type { %"class.std::shared_ptr.229" }
%"class.std::shared_ptr.229" = type { %"class.std::__shared_ptr.230" }
%"class.std::__shared_ptr.230" = type { ptr, %"class.std::__shared_count" }
%"class.node::UnionBytes" = type { ptr, ptr }
%"class.std::shared_ptr.232" = type { %"class.std::__shared_ptr.233" }
%"class.std::__shared_ptr.233" = type { ptr, %"class.std::__shared_count" }
%"class.std::function.235" = type { %"class.std::_Function_base", ptr }
%"class.std::unordered_map.237" = type { %"class.std::_Hashtable.238" }
%"class.std::_Hashtable.238" = type { ptr, i64, %"struct.std::__detail::_Hash_node_base", i64, %"struct.std::__detail::_Prime_rehash_policy", ptr }
%"class.node::Realm" = type { %"class.node::MemoryRetainer", %"class.std::set", %"class.std::set.324", %"class.std::set.324", %"class.std::vector.102", ptr, ptr, %"class.v8::Global.332", %"class.v8::Global.23", %"class.v8::Global.23", %"class.v8::Global.23", %"class.v8::Global", %"class.v8::Global.23", %"class.v8::Global.23", %"class.v8::Global.23", %"class.v8::Global", %"class.v8::Global.23", %"class.v8::Global.23", %"class.v8::Global.23", %"class.v8::Global.23", %"class.v8::Global.23", %"class.v8::Global.23", %"class.v8::Global.23", %"class.v8::Global.23", %"class.v8::Global.23", %"class.v8::Global.23", %"class.v8::Global.23", %"class.v8::Global.23", %"class.v8::Global.23", %"class.v8::Global.23", %"class.v8::Global.23", %"class.v8::Global.23", %"class.v8::Global.23", %"class.v8::Global.23", %"class.v8::Global.23", %"class.v8::Global.23", %"class.v8::Global.23", %"class.v8::Global.23", %"class.v8::Global.23", %"class.v8::Global.23", %"class.v8::Global.23", %"class.v8::Global.23", %"class.v8::Global.23", %"class.v8::Global.23", %"class.v8::Global", %"class.v8::Global.23", %"class.v8::Global.23", %"class.v8::Global.23", %"class.v8::Global", %"class.v8::Global", %"class.v8::Global", %"class.v8::Global", %"class.v8::Global", %"class.v8::Global", %"class.v8::Global.23", %"class.v8::Global.23", %"class.v8::Global.23", %"class.v8::Global.23", %"class.v8::Global.23", %"class.v8::Global.23", %"class.v8::Global.23", %"class.v8::Global.23", %"class.v8::Global.23", %"class.v8::Global.23", %"class.v8::Global.23", %"class.v8::Global.23", %"class.v8::Global.23", %"class.v8::Global.23", i32, i8, i64, i64, %"struct.std::array.334", %"class.node::CleanupQueue" }
%"class.std::set" = type { %"class.std::_Rb_tree" }
%"class.std::_Rb_tree" = type { %"struct.std::_Rb_tree<node::node_module *, node::node_module *, std::_Identity<node::node_module *>, std::less<node::node_module *>>::_Rb_tree_impl" }
%"struct.std::_Rb_tree<node::node_module *, node::node_module *, std::_Identity<node::node_module *>, std::less<node::node_module *>>::_Rb_tree_impl" = type { %"struct.std::_Rb_tree_key_compare", %"struct.std::_Rb_tree_header" }
%"struct.std::_Rb_tree_key_compare" = type { %"struct.std::less" }
%"struct.std::less" = type { i8 }
%"struct.std::_Rb_tree_header" = type { %"struct.std::_Rb_tree_node_base", i64 }
%"struct.std::_Rb_tree_node_base" = type { i32, ptr, ptr, ptr }
%"class.std::set.324" = type { %"class.std::_Rb_tree.325" }
%"class.std::_Rb_tree.325" = type { %"struct.std::_Rb_tree<std::__cxx11::basic_string<char>, std::__cxx11::basic_string<char>, std::_Identity<std::__cxx11::basic_string<char>>, std::less<std::__cxx11::basic_string<char>>>::_Rb_tree_impl" }
%"struct.std::_Rb_tree<std::__cxx11::basic_string<char>, std::__cxx11::basic_string<char>, std::_Identity<std::__cxx11::basic_string<char>>, std::less<std::__cxx11::basic_string<char>>>::_Rb_tree_impl" = type { %"struct.std::_Rb_tree_key_compare.329", %"struct.std::_Rb_tree_header" }
%"struct.std::_Rb_tree_key_compare.329" = type { %"struct.std::less.330" }
%"struct.std::less.330" = type { i8 }
%"class.v8::Global.332" = type { %"class.v8::PersistentBase.333" }
%"class.v8::PersistentBase.333" = type { %"class.v8::IndirectHandleBase" }
%"struct.std::array.334" = type { [12 x %"class.node::BaseObjectPtrImpl.335"] }
%"class.node::BaseObjectPtrImpl.335" = type { %union.anon.336 }
%union.anon.336 = type { ptr }

; Function Attrs: mustprogress nounwind uwtable
define linkonce_odr dso_local noundef ptr @_ZNK4node5Realm3envEv(ptr noundef nonnull align 8 dereferenceable(872) %this) #4 comdat align 2 {
entry:
  %this.addr = alloca ptr, align 8
  store ptr %this, ptr %this.addr, align 8
  %this1 = load ptr, ptr %this.addr, align 8
  %env_ = getelementptr inbounds %"class.node::Realm", ptr %this1, i32 0, i32 5
  %0 = load ptr, ptr %env_, align 8
  ret ptr %0
}

; Function Attrs: mustprogress nounwind uwtable
define linkonce_odr dso_local void @_ZN4node8ListHeadINS_10HandleWrapEXadL_ZNS1_18handle_wrap_queue_EEEE8PushBackEPS1_(ptr noundef nonnull align 8 dereferenceable(16) %this, ptr noundef %element) #4 comdat align 2 {
entry:
  %this.addr = alloca ptr, align 8
  %element.addr = alloca ptr, align 8
  %that = alloca ptr, align 8
  store ptr %this, ptr %this.addr, align 8
  store ptr %element, ptr %element.addr, align 8
  %this1 = load ptr, ptr %this.addr, align 8
  %0 = load ptr, ptr %element.addr, align 8
  %memptr.offset = getelementptr inbounds i8, ptr %0, i64 64
  store ptr %memptr.offset, ptr %that, align 8
  %1 = load ptr, ptr %that, align 8
  %head_ = getelementptr inbounds %"class.node::ListHead", ptr %this1, i32 0, i32 0
  %prev_ = getelementptr inbounds %"class.node::ListNode", ptr %head_, i32 0, i32 0
  %2 = load ptr, ptr %prev_, align 8
  %next_ = getelementptr inbounds %"class.node::ListNode", ptr %2, i32 0, i32 1
  store ptr %1, ptr %next_, align 8
  %head_2 = getelementptr inbounds %"class.node::ListHead", ptr %this1, i32 0, i32 0
  %prev_3 = getelementptr inbounds %"class.node::ListNode", ptr %head_2, i32 0, i32 0
  %3 = load ptr, ptr %prev_3, align 8
  %4 = load ptr, ptr %that, align 8
  %prev_4 = getelementptr inbounds %"class.node::ListNode", ptr %4, i32 0, i32 0
  store ptr %3, ptr %prev_4, align 8
  %head_5 = getelementptr inbounds %"class.node::ListHead", ptr %this1, i32 0, i32 0
  %5 = load ptr, ptr %that, align 8
  %next_6 = getelementptr inbounds %"class.node::ListNode", ptr %5, i32 0, i32 1
  store ptr %head_5, ptr %next_6, align 8
  %6 = load ptr, ptr %that, align 8
  %head_7 = getelementptr inbounds %"class.node::ListHead", ptr %this1, i32 0, i32 0
  %prev_8 = getelementptr inbounds %"class.node::ListNode", ptr %head_7, i32 0, i32 0
  store ptr %6, ptr %prev_8, align 8
  ret void
}

; Function Attrs: mustprogress nounwind uwtable
define linkonce_odr dso_local noundef ptr @_ZN4node11Environment17handle_wrap_queueEv(ptr noundef nonnull align 8 dereferenceable(2872) %this) #4 comdat align 2 {
entry:
  %this.addr = alloca ptr, align 8
  store ptr %this, ptr %this.addr, align 8
  %this1 = load ptr, ptr %this.addr, align 8
  %handle_wrap_queue_ = getelementptr inbounds %"class.node::Environment", ptr %this1, i32 0, i32 69
  ret ptr %handle_wrap_queue_
}

; Function Attrs: mustprogress nounwind uwtable
define linkonce_odr dso_local noundef ptr @_ZNK4node10BaseObject3envEv(ptr noundef nonnull align 8 dereferenceable(32) %this) #4 comdat align 2 {
entry:
  %this.addr = alloca ptr, align 8
  store ptr %this, ptr %this.addr, align 8
  %this1 = load ptr, ptr %this.addr, align 8
  %realm_ = getelementptr inbounds %"class.node::BaseObject", ptr %this1, i32 0, i32 2
  %0 = load ptr, ptr %realm_, align 8
  %call = call noundef ptr @_ZNK4node5Realm3envEv(ptr noundef nonnull align 8 dereferenceable(872) %0)
  ret ptr %call
}

; Function Attrs: mustprogress nounwind uwtable
define dso_local void @_ZN4node10HandleWrap17MarkAsInitializedEv(ptr noundef nonnull align 8 dereferenceable(88) %this) #4 align 2 {
entry:
  %this.addr = alloca ptr, align 8
  store ptr %this, ptr %this.addr, align 8
  %this1 = load ptr, ptr %this.addr, align 8
  %call = call noundef ptr @_ZNK4node10BaseObject3envEv(ptr noundef nonnull align 8 dereferenceable(32) %this1)
  %call2 = call noundef ptr @_ZN4node11Environment17handle_wrap_queueEv(ptr noundef nonnull align 8 dereferenceable(2872) %call)
  call void @_ZN4node8ListHeadINS_10HandleWrapEXadL_ZNS1_18handle_wrap_queue_EEEE8PushBackEPS1_(ptr noundef nonnull align 8 dereferenceable(16) %call2, ptr noundef %this1)
  %state_ = getelementptr inbounds %"class.node::HandleWrap", ptr %this1, i32 0, i32 1
  store i32 0, ptr %state_, align 8
  ret void
}