; Function Attrs: mustprogress nofree norecurse nosync nounwind willreturn memory(readwrite, inaccessiblemem: none) uwtable
define dso_local void @_ZN4node10HandleWrap17MarkAsInitializedEv(ptr noundef nonnull align 8 dereferenceable(88) %this) local_unnamed_addr #4 align 2 {
entry:
  %realm_.i = getelementptr inbounds i8, ptr %this, i64 16
  %0 = load ptr, ptr %realm_.i, align 8
  %env_.i.i = getelementptr inbounds i8, ptr %0, i64 176
  %1 = load ptr, ptr %env_.i.i, align 8
  %handle_wrap_queue_.i = getelementptr inbounds i8, ptr %1, i64 2176
  %memptr.offset.i = getelementptr inbounds i8, ptr %this, i64 64
  %2 = load ptr, ptr %handle_wrap_queue_.i, align 8
  %next_.i = getelementptr inbounds i8, ptr %2, i64 8
  store ptr %memptr.offset.i, ptr %next_.i, align 8
  %3 = load ptr, ptr %handle_wrap_queue_.i, align 8
  store ptr %3, ptr %memptr.offset.i, align 8
  %next_6.i = getelementptr inbounds i8, ptr %this, i64 72
  store ptr %handle_wrap_queue_.i, ptr %next_6.i, align 8
  store ptr %memptr.offset.i, ptr %handle_wrap_queue_.i, align 8
  %state_ = getelementptr inbounds i8, ptr %this, i64 56
  store i32 0, ptr %state_, align 8
  ret void
}